target datalayout = "e-m:e-p270:32:32-p271:32:32-p272:64:64-i64:64-i128:128-f80:128-n8:16:32:64-S128"
target triple = "x86_64-pc-linux-gnu"

%struct.RBasic = type { i64, i64 }
%struct.rb_callcache = type { i64, i64, ptr, ptr, %union.anon.31 }
%union.anon.31 = type { %struct.anon.32 }
%struct.anon.32 = type { i64 }

; Function Attrs: inlinehint nounwind sspstrong willreturn memory(none) uwtable
define internal zeroext i1 @RB_IMMEDIATE_P(i64 noundef %0) #7 {
  %2 = alloca i64, align 8
  store i64 %0, ptr %2, align 8, !tbaa !17
  %3 = load i64, ptr %2, align 8, !tbaa !17
  %4 = and i64 %3, 7
  %5 = icmp ne i64 %4, 0
  ret i1 %5
}

; Function Attrs: inlinehint nounwind sspstrong willreturn memory(none) uwtable
define internal zeroext i1 @RB_SPECIAL_CONST_P(i64 noundef %0) #7 {
  %2 = alloca i64, align 8
  store i64 %0, ptr %2, align 8, !tbaa !17
  %3 = load i64, ptr %2, align 8, !tbaa !17
  %4 = icmp eq i64 %3, 0
  br i1 %4, label %8, label %5

5:                                                ; preds = %1
  %6 = load i64, ptr %2, align 8, !tbaa !17
  %7 = call zeroext i1 @RB_IMMEDIATE_P(i64 noundef %6) #28
  br label %8

8:                                                ; preds = %5, %1
  %9 = phi i1 [ true, %1 ], [ %7, %5 ]
  ret i1 %9
}

; Function Attrs: inlinehint nounwind sspstrong uwtable
define internal zeroext i1 @vm_cc_bf_p(ptr noundef %0) #5 {
  %2 = alloca ptr, align 8
  store ptr %0, ptr %2, align 8, !tbaa !122
  %3 = load ptr, ptr %2, align 8, !tbaa !122
  %4 = getelementptr inbounds nuw %struct.rb_callcache, ptr %3, i32 0, i32 0
  %5 = load i64, ptr %4, align 8, !tbaa !409
  %6 = and i64 %5, 131072
  %7 = icmp ne i64 %6, 0
  ret i1 %7
}

; Function Attrs: inlinehint nounwind sspstrong uwtable
define internal zeroext i1 @vm_cc_ivar_p(ptr noundef %0) #5 {
  %2 = alloca ptr, align 8
  store ptr %0, ptr %2, align 8, !tbaa !122
  %3 = load ptr, ptr %2, align 8, !tbaa !122
  %4 = getelementptr inbounds nuw %struct.rb_callcache, ptr %3, i32 0, i32 0
  %5 = load i64, ptr %4, align 8, !tbaa !409
  %6 = and i64 %5, 65536
  %7 = icmp ne i64 %6, 0
  ret i1 %7
}

; Function Attrs: inlinehint nounwind sspstrong uwtable
define internal i32 @imemo_type_p(i64 noundef %0, i32 noundef %1) #5 {
  %3 = alloca i32, align 4
  %4 = alloca i64, align 8
  %5 = alloca i32, align 4
  %6 = alloca i64, align 8
  %7 = alloca i64, align 8
  store i64 %0, ptr %4, align 8, !tbaa !17
  store i32 %1, ptr %5, align 4, !tbaa !56
  %8 = load i64, ptr %4, align 8, !tbaa !17
  %9 = call zeroext i1 @RB_SPECIAL_CONST_P(i64 noundef %8) #28
  %10 = xor i1 %9, true
  %11 = xor i1 %10, true
  %12 = xor i1 %11, true
  %13 = zext i1 %12 to i32
  %14 = sext i32 %13 to i64
  %15 = call i64 @llvm.expect.i64(i64 %14, i64 1)
  %16 = icmp ne i64 %15, 0
  br i1 %16, label %17, label %30

17:                                               ; preds = %2
  call void @llvm.lifetime.start.p0(i64 8, ptr %6) #24
  store i64 61471, ptr %6, align 8, !tbaa !17
  call void @llvm.lifetime.start.p0(i64 8, ptr %7) #24
  %18 = load i32, ptr %5, align 4, !tbaa !56
  %19 = shl i32 %18, 12
  %20 = or i32 %19, 26
  %21 = zext i32 %20 to i64
  store i64 %21, ptr %7, align 8, !tbaa !17
  %22 = load i64, ptr %7, align 8, !tbaa !17
  %23 = load i64, ptr %4, align 8, !tbaa !17
  %24 = inttoptr i64 %23 to ptr
  %25 = getelementptr inbounds nuw %struct.RBasic, ptr %24, i32 0, i32 0
  %26 = load i64, ptr %25, align 8, !tbaa !70
  %27 = and i64 %26, 61471
  %28 = icmp eq i64 %22, %27
  %29 = zext i1 %28 to i32
  store i32 %29, ptr %3, align 4
  call void @llvm.lifetime.end.p0(i64 8, ptr %7) #24
  call void @llvm.lifetime.end.p0(i64 8, ptr %6) #24
  br label %31

30:                                               ; preds = %2
  store i32 0, ptr %3, align 4
  br label %31

31:                                               ; preds = %30, %17
  %32 = load i32, ptr %3, align 4
  ret i32 %32
}

; Function Attrs: nounwind sspstrong uwtable
define internal zeroext i1 @clear_bf_cc(i64 noundef %0) #0 {
  %2 = alloca i1, align 1
  %3 = alloca i64, align 8
  store i64 %0, ptr %3, align 8, !tbaa !17
  %4 = load i64, ptr %3, align 8, !tbaa !17
  %5 = call i32 @imemo_type_p(i64 noundef %4, i32 noundef 12)
  %6 = icmp ne i32 %5, 0
  br i1 %6, label %7, label %14

7:                                                ; preds = %1
  %8 = load i64, ptr %3, align 8, !tbaa !17
  %9 = inttoptr i64 %8 to ptr
  %10 = call zeroext i1 @vm_cc_bf_p(ptr noundef %9)
  br i1 %10, label %11, label %14

11:                                               ; preds = %7
  %12 = load i64, ptr %3, align 8, !tbaa !17
  %13 = inttoptr i64 %12 to ptr
  call void @rb_vm_cc_general(ptr noundef %13)
  store i1 true, ptr %2, align 1
  br label %15

14:                                               ; preds = %7, %1
  store i1 false, ptr %2, align 1
  br label %15

15:                                               ; preds = %14, %11
  %16 = load i1, ptr %2, align 1
  ret i1 %16
}

; Function Attrs: nounwind sspstrong uwtable
define internal zeroext i1 @clear_attr_cc(i64 noundef %0) #0 {
  %2 = alloca i1, align 1
  %3 = alloca i64, align 8
  store i64 %0, ptr %3, align 8, !tbaa !17
  %4 = load i64, ptr %3, align 8, !tbaa !17
  %5 = call i32 @imemo_type_p(i64 noundef %4, i32 noundef 12)
  %6 = icmp ne i32 %5, 0
  br i1 %6, label %7, label %14

7:                                                ; preds = %1
  %8 = load i64, ptr %3, align 8, !tbaa !17
  %9 = inttoptr i64 %8 to ptr
  %10 = call zeroext i1 @vm_cc_ivar_p(ptr noundef %9)
  br i1 %10, label %11, label %14

11:                                               ; preds = %7
  %12 = load i64, ptr %3, align 8, !tbaa !17
  %13 = inttoptr i64 %12 to ptr
  call void @rb_vm_cc_general(ptr noundef %13)
  store i1 true, ptr %2, align 1
  br label %15

14:                                               ; preds = %7, %1
  store i1 false, ptr %2, align 1
  br label %15

15:                                               ; preds = %14, %11
  %16 = load i1, ptr %2, align 1
  ret i1 %16
}

; Function Attrs: inlinehint nounwind sspstrong uwtable
define internal ptr @rb_iseq_check(ptr noundef %0) #5 {
  %2 = alloca ptr, align 8
  store ptr %0, ptr %2, align 8, !tbaa !7
  %3 = load ptr, ptr %2, align 8, !tbaa !7
  ret ptr %3
}

; Function Attrs: inlinehint nounwind sspstrong uwtable
define internal i32 @rb_obj_is_iseq(i64 noundef %0) #5 {
  %2 = alloca i64, align 8
  store i64 %0, ptr %2, align 8, !tbaa !17
  %3 = load i64, ptr %2, align 8, !tbaa !17
  %4 = call i32 @imemo_type_p(i64 noundef %3, i32 noundef 7)
  ret i32 %4
}

; Function Attrs: nounwind sspstrong uwtable
define internal i32 @trace_set_i(ptr noundef %0, ptr noundef %1, i64 noundef %2, ptr noundef %3) #0 {
  %5 = alloca ptr, align 8
  %6 = alloca ptr, align 8
  %7 = alloca i64, align 8
  %8 = alloca ptr, align 8
  %9 = alloca i32, align 4
  %10 = alloca i64, align 8
  %11 = alloca ptr, align 8
  store ptr %0, ptr %5, align 8, !tbaa !104
  store ptr %1, ptr %6, align 8, !tbaa !104
  store i64 %2, ptr %7, align 8, !tbaa !17
  store ptr %3, ptr %8, align 8, !tbaa !104
  call void @llvm.lifetime.start.p0(i64 4, ptr %9) #24
  %12 = load ptr, ptr %8, align 8, !tbaa !104
  %13 = load i32, ptr %12, align 4, !tbaa !56
  store i32 %13, ptr %9, align 4, !tbaa !56
  call void @llvm.lifetime.start.p0(i64 8, ptr %10) #24
  %14 = load ptr, ptr %5, align 8, !tbaa !104
  %15 = ptrtoint ptr %14 to i64
  store i64 %15, ptr %10, align 8, !tbaa !17
  br label %16

16:                                               ; preds = %44, %4
  %17 = load i64, ptr %10, align 8, !tbaa !17
  %18 = load ptr, ptr %6, align 8, !tbaa !104
  %19 = ptrtoint ptr %18 to i64
  %20 = icmp ne i64 %17, %19
  br i1 %20, label %21, label %48

21:                                               ; preds = %16
  call void @llvm.lifetime.start.p0(i64 8, ptr %11) #24
  %22 = load i64, ptr %10, align 8, !tbaa !17
  %23 = call ptr @rb_asan_poisoned_object_p(i64 noundef %22)
  store ptr %23, ptr %11, align 8, !tbaa !104
  %24 = load i64, ptr %10, align 8, !tbaa !17
  call void @rb_asan_unpoison_object(i64 noundef %24, i1 noundef zeroext false)
  %25 = load i64, ptr %10, align 8, !tbaa !17
  %26 = call i32 @rb_obj_is_iseq(i64 noundef %25)
  %27 = icmp ne i32 %26, 0
  br i1 %27, label %28, label %33

28:                                               ; preds = %21
  %29 = load i64, ptr %10, align 8, !tbaa !17
  %30 = inttoptr i64 %29 to ptr
  %31 = call ptr @rb_iseq_check(ptr noundef %30)
  %32 = load i32, ptr %9, align 4, !tbaa !56
  call void @rb_iseq_trace_set(ptr noundef %31, i32 noundef %32)
  br label %43

33:                                               ; preds = %21
  %34 = load i64, ptr %10, align 8, !tbaa !17
  %35 = call zeroext i1 @clear_attr_cc(i64 noundef %34)
  br i1 %35, label %36, label %37

36:                                               ; preds = %33
  br label %42

37:                                               ; preds = %33
  %38 = load i64, ptr %10, align 8, !tbaa !17
  %39 = call zeroext i1 @clear_bf_cc(i64 noundef %38)
  br i1 %39, label %40, label %41

40:                                               ; preds = %37
  br label %41

41:                                               ; preds = %40, %37
  br label %42

42:                                               ; preds = %41, %36
  br label %43

43:                                               ; preds = %42, %28
  call void @llvm.lifetime.end.p0(i64 8, ptr %11) #24
  br label %44

44:                                               ; preds = %43
  %45 = load i64, ptr %7, align 8, !tbaa !17
  %46 = load i64, ptr %10, align 8, !tbaa !17
  %47 = add i64 %46, %45
  store i64 %47, ptr %10, align 8, !tbaa !17
  br label %16, !llvm.loop !353

48:                                               ; preds = %16
  call void @llvm.lifetime.end.p0(i64 8, ptr %10) #24
  call void @llvm.lifetime.end.p0(i64 4, ptr %9) #24
  ret i32 0
}