; Function Attrs: nounwind sspstrong uwtable
define internal noundef i32 @trace_set_i(ptr noundef %0, ptr noundef %1, i64 noundef %2, ptr noundef readonly captures(none) %3) #0 {
  %5 = load i32, ptr %3, align 4, !tbaa !136
  %6 = ptrtoint ptr %1 to i64
  %.not21 = icmp eq ptr %0, %1
  br i1 %.not21, label %._crit_edge, label %.lr.ph.preheader

.lr.ph.preheader:                                 ; preds = %4
  %7 = ptrtoint ptr %0 to i64
  br label %.lr.ph

.lr.ph:                                           ; preds = %.lr.ph.preheader, %clear_bf_cc.exit
  %.022 = phi i64 [ %20, %clear_bf_cc.exit ], [ %7, %.lr.ph.preheader ]
  %8 = tail call ptr @rb_asan_poisoned_object_p(i64 noundef %.022) #20
  tail call void @rb_asan_unpoison_object(i64 noundef %.022, i1 noundef zeroext false) #20
  %9 = icmp eq i64 %.022, 0
  %10 = and i64 %.022, 7
  %11 = icmp ne i64 %10, 0
  %12 = or i1 %9, %11
  br i1 %12, label %clear_bf_cc.exit, label %rb_obj_is_iseq.exit, !prof !93

rb_obj_is_iseq.exit:                              ; preds = %.lr.ph
  %13 = inttoptr i64 %.022 to ptr
  %14 = load i64, ptr %13, align 8, !tbaa !74
  %15 = and i64 %14, 61471
  %.not20 = icmp eq i64 %15, 28698
  br i1 %.not20, label %16, label %imemo_type_p.exit.i

16:                                               ; preds = %rb_obj_is_iseq.exit
  tail call void @rb_iseq_trace_set(ptr noundef nonnull %13, i32 noundef %5)
  br label %clear_bf_cc.exit

imemo_type_p.exit.i:                              ; preds = %rb_obj_is_iseq.exit
  %17 = and i64 %14, 127007
  %or.cond.not.i = icmp eq i64 %17, 114714
  br i1 %or.cond.not.i, label %clear_attr_cc.exit, label %imemo_type_p.exit.i13

clear_attr_cc.exit:                               ; preds = %imemo_type_p.exit.i
  tail call void @rb_vm_cc_general(ptr noundef nonnull %13) #20
  br label %clear_bf_cc.exit

imemo_type_p.exit.i13:                            ; preds = %imemo_type_p.exit.i
  %18 = and i64 %14, 192543
  %or.cond.not.i14 = icmp eq i64 %18, 180250
  br i1 %or.cond.not.i14, label %19, label %clear_bf_cc.exit

19:                                               ; preds = %imemo_type_p.exit.i13
  tail call void @rb_vm_cc_general(ptr noundef nonnull %13) #20
  br label %clear_bf_cc.exit

clear_bf_cc.exit:                                 ; preds = %.lr.ph, %19, %imemo_type_p.exit.i13, %clear_attr_cc.exit, %16
  %20 = add i64 %.022, %2
  %.not = icmp eq i64 %20, %6
  br i1 %.not, label %._crit_edge, label %.lr.ph, !llvm.loop !349

._crit_edge:                                      ; preds = %clear_bf_cc.exit, %4
  ret i32 0
}